target datalayout = "e-m:e-p270:32:32-p271:32:32-p272:64:64-i64:64-i128:128-f80:128-n8:16:32:64-S128"
target triple = "x86_64-pc-linux-gnu"

; Function Attrs: null_pointer_is_valid sspstrong uwtable
define i32 @hpke_set_nonce(ptr noundef %0, i64 noundef %1, ptr noundef %2, i64 noundef %3) #0 {
  %5 = alloca ptr, align 8
  %6 = alloca i64, align 8
  %7 = alloca ptr, align 8
  %8 = alloca i64, align 8
  %9 = alloca i64, align 8
  %10 = alloca ptr, align 8
  store ptr %0, ptr %5, align 8
  store i64 %1, ptr %6, align 8
  store ptr %2, ptr %7, align 8
  store i64 %3, ptr %8, align 8
  call void @llvm.lifetime.start.p0(i64 8, ptr %9) #9
  call void @llvm.lifetime.start.p0(i64 8, ptr %10) #9
  %11 = load i64, ptr %8, align 8
  %12 = call noalias ptr @wmem_alloc0(ptr noundef null, i64 noundef %11) #11
  store ptr %12, ptr %10, align 8
  store i64 1, ptr %9, align 8
  br label %13

13:                                               ; preds = %27, %4
  %14 = load i64, ptr %9, align 8
  %15 = icmp ult i64 %14, 9
  br i1 %15, label %16, label %30

16:                                               ; preds = %13
  %17 = load i64, ptr %6, align 8
  %18 = and i64 %17, 255
  %19 = trunc i64 %18 to i8
  %20 = load ptr, ptr %10, align 8
  %21 = load i64, ptr %8, align 8
  %22 = load i64, ptr %9, align 8
  %23 = sub i64 %21, %22
  %24 = getelementptr i8, ptr %20, i64 %23
  store i8 %19, ptr %24, align 1
  %25 = load i64, ptr %6, align 8
  %26 = lshr i64 %25, 8
  store i64 %26, ptr %6, align 8
  br label %27

27:                                               ; preds = %16
  %28 = load i64, ptr %9, align 8
  %29 = add i64 %28, 1
  store i64 %29, ptr %9, align 8
  br label %13, !llvm.loop !11

30:                                               ; preds = %13
  store i64 0, ptr %9, align 8
  br label %31

31:                                               ; preds = %48, %30
  %32 = load i64, ptr %9, align 8
  %33 = load i64, ptr %8, align 8
  %34 = icmp ult i64 %32, %33
  br i1 %34, label %35, label %51

35:                                               ; preds = %31
  %36 = load ptr, ptr %7, align 8
  %37 = load i64, ptr %9, align 8
  %38 = getelementptr i8, ptr %36, i64 %37
  %39 = load i8, ptr %38, align 1
  %40 = zext i8 %39 to i32
  %41 = load ptr, ptr %10, align 8
  %42 = load i64, ptr %9, align 8
  %43 = getelementptr i8, ptr %41, i64 %42
  %44 = load i8, ptr %43, align 1
  %45 = zext i8 %44 to i32
  %46 = xor i32 %45, %40
  %47 = trunc i32 %46 to i8
  store i8 %47, ptr %43, align 1
  br label %48

48:                                               ; preds = %35
  %49 = load i64, ptr %9, align 8
  %50 = add i64 %49, 1
  store i64 %50, ptr %9, align 8
  br label %31, !llvm.loop !12

51:                                               ; preds = %31
  %52 = load ptr, ptr %5, align 8
  %53 = load ptr, ptr %10, align 8
  %54 = load i64, ptr %8, align 8
  %55 = call i32 @gcry_cipher_setiv(ptr noundef %52, ptr noundef %53, i64 noundef %54)
  call void @llvm.lifetime.end.p0(i64 8, ptr %10) #9
  call void @llvm.lifetime.end.p0(i64 8, ptr %9) #9
  ret i32 %55
}