; Function Attrs: null_pointer_is_valid sspstrong uwtable
define i32 @hpke_set_nonce(ptr noundef %0, i64 noundef %1, ptr noundef readonly captures(none) %2, i64 noundef %3) local_unnamed_addr #0 {
  %5 = tail call noalias ptr @wmem_alloc0(ptr noundef null, i64 noundef %3) #12
  br label %6

.preheader:                                       ; preds = %6
  %.not = icmp eq i64 %3, 0
  br i1 %.not, label %._crit_edge, label %.lr.ph

6:                                                ; preds = %4, %6
  %.020 = phi i64 [ %1, %4 ], [ %10, %6 ]
  %.01719 = phi i64 [ 1, %4 ], [ %11, %6 ]
  %7 = trunc i64 %.020 to i8
  %8 = sub i64 %3, %.01719
  %9 = getelementptr i8, ptr %5, i64 %8
  store i8 %7, ptr %9, align 1
  %10 = lshr i64 %.020, 8
  %11 = add nuw nsw i64 %.01719, 1
  %exitcond.not = icmp eq i64 %11, 9
  br i1 %exitcond.not, label %.preheader, label %6, !llvm.loop !13

.lr.ph:                                           ; preds = %.preheader, %.lr.ph
  %.121 = phi i64 [ %17, %.lr.ph ], [ 0, %.preheader ]
  %12 = getelementptr i8, ptr %2, i64 %.121
  %13 = load i8, ptr %12, align 1
  %14 = getelementptr i8, ptr %5, i64 %.121
  %15 = load i8, ptr %14, align 1
  %16 = xor i8 %15, %13
  store i8 %16, ptr %14, align 1
  %17 = add nuw i64 %.121, 1
  %exitcond22.not = icmp eq i64 %17, %3
  br i1 %exitcond22.not, label %._crit_edge, label %.lr.ph, !llvm.loop !14

._crit_edge:                                      ; preds = %.lr.ph, %.preheader
  %18 = tail call i32 @gcry_cipher_setiv(ptr noundef %0, ptr noundef %5, i64 noundef %3)
  ret i32 %18
}